target datalayout = "e-m:e-p270:32:32-p271:32:32-p272:64:64-i64:64-i128:128-f80:128-n8:16:32:64-S128"
target triple = "x86_64-pc-linux-gnu"

%struct._GLFWlibrary = type { i32, %struct.GLFWallocator, %struct._GLFWplatform, %struct.anon.7, ptr, ptr, ptr, ptr, i32, i32, [16 x %struct._GLFWjoystick], ptr, i32, %struct._GLFWtls, %struct._GLFWtls, %struct._GLFWmutex, %struct.anon.16, %struct.anon.17, %struct.anon.18, %struct.anon.19, %struct.anon.20, %struct._GLFWlibraryWayland, %struct._GLFWlibraryX11, %struct._GLFWlibraryNull, %struct._GLFWlibraryGLX, %struct._GLFWlibraryLinux }
%struct.GLFWallocator = type { ptr, ptr, ptr, ptr }
%struct._GLFWplatform = type { i32, ptr, ptr, ptr, ptr, ptr, ptr, ptr, ptr, ptr, ptr, ptr, ptr, ptr, ptr, ptr, ptr, ptr, ptr, ptr, ptr, ptr, ptr, ptr, ptr, ptr, ptr, ptr, ptr, ptr, ptr, ptr, ptr, ptr, ptr, ptr, ptr, ptr, ptr, ptr, ptr, ptr, ptr, ptr, ptr, ptr, ptr, ptr, ptr, ptr, ptr, ptr, ptr, ptr, ptr, ptr, ptr, ptr, ptr, ptr, ptr, ptr, ptr, ptr, ptr, ptr, ptr, ptr, ptr, ptr, ptr, ptr }
%struct.anon.7 = type { %struct._GLFWinitconfig, %struct._GLFWfbconfig, %struct._GLFWwndconfig, %struct._GLFWctxconfig, i32 }
%struct._GLFWinitconfig = type { i32, i32, i32, ptr, %struct.anon.8, %struct.anon.9, %struct.anon.10 }
%struct.anon.8 = type { i32, i32 }
%struct.anon.9 = type { i32 }
%struct.anon.10 = type { i32 }
%struct._GLFWfbconfig = type { i32, i32, i32, i32, i32, i32, i32, i32, i32, i32, i32, i32, i32, i32, i32, i32, i64 }
%struct._GLFWwndconfig = type { i32, i32, i32, i32, ptr, i32, i32, i32, i32, i32, i32, i32, i32, i32, i32, i32, i32, %struct.anon.11, %struct.anon.12, %struct.anon.13, %struct.anon.14 }
%struct.anon.11 = type { [256 x i8] }
%struct.anon.12 = type { [256 x i8], [256 x i8] }
%struct.anon.13 = type { i32, i32 }
%struct.anon.14 = type { [256 x i8] }
%struct._GLFWctxconfig = type { i32, i32, i32, i32, i32, i32, i32, i32, i32, i32, ptr, %struct.anon.15 }
%struct.anon.15 = type { i32 }
%struct._GLFWjoystick = type { i32, i32, ptr, i32, ptr, i32, ptr, i32, [128 x i8], ptr, [33 x i8], ptr, %struct._GLFWjoystickLinux }
%struct._GLFWjoystickLinux = type { i32, [4096 x i8], [512 x i32], [64 x i32], [64 x %struct.input_absinfo], [4 x [2 x i32]] }
%struct.input_absinfo = type { i32, i32, i32, i32, i32, i32 }
%struct._GLFWtls = type { %struct._GLFWtlsPOSIX }
%struct._GLFWtlsPOSIX = type { i32, i32 }
%struct._GLFWmutex = type { %struct._GLFWmutexPOSIX }
%struct._GLFWmutexPOSIX = type { i32, %union.pthread_mutex_t }
%union.pthread_mutex_t = type { %struct.__pthread_mutex_s }
%struct.__pthread_mutex_s = type { i32, i32, i32, i32, i32, i16, i16, %struct.__pthread_internal_list }
%struct.__pthread_internal_list = type { ptr, ptr }
%struct.anon.16 = type { i64, %struct._GLFWtimerPOSIX }
%struct._GLFWtimerPOSIX = type { i32, i64 }
%struct.anon.17 = type { i32, ptr, i32, i32, i32, i32, i32, i32, i32, i32, i32, i32, i32, i32, i32, i32, i32, i32, i32, i32, ptr, ptr, ptr, ptr, ptr, ptr, ptr, ptr, ptr, ptr, ptr, ptr, ptr, ptr, ptr, ptr, ptr, ptr, ptr }
%struct.anon.18 = type { ptr, ptr, ptr, ptr, ptr, ptr, ptr, ptr }
%struct.anon.19 = type { i32, ptr, [2 x ptr], ptr, i32, i32, i32, i32, i32, i32, i32 }
%struct.anon.20 = type { ptr, ptr }
%struct._GLFWlibraryWayland = type { ptr, ptr, ptr, ptr, ptr, ptr, ptr, ptr, ptr, ptr, ptr, ptr, ptr, ptr, ptr, ptr, ptr, ptr, ptr, i32, ptr, ptr, ptr, ptr, i32, ptr, ptr, ptr, ptr, ptr, i32, i32, i32, i32, i32, i32, i32, ptr, [256 x i16], [349 x i16], [349 x [5 x i8]], %struct.anon.21, ptr, ptr, %struct.anon.22, %struct.anon.23, %struct.anon.24, %struct.anon.25 }
%struct.anon.21 = type { ptr, ptr, ptr, ptr, ptr, i32, i32, i32, i32, i32, i32, i32, ptr, ptr, ptr, ptr, ptr, ptr, ptr, ptr, ptr, ptr, ptr, ptr, ptr, ptr, ptr, ptr, ptr, ptr, ptr, ptr }
%struct.anon.22 = type { ptr, ptr, ptr, ptr, ptr, ptr, ptr, ptr, ptr, ptr, ptr, ptr, ptr, ptr, ptr, ptr, ptr, ptr, ptr, ptr }
%struct.anon.23 = type { ptr, ptr, ptr, ptr, ptr }
%struct.anon.24 = type { ptr, ptr, ptr, ptr }
%struct.anon.25 = type { ptr, ptr, ptr, i32, ptr, ptr, ptr, ptr, ptr, ptr, ptr, ptr, ptr, ptr, ptr, ptr, ptr, ptr, ptr, ptr, ptr, ptr, ptr, ptr, ptr, ptr, ptr, ptr, ptr }
%struct._GLFWlibraryX11 = type { ptr, i32, i64, float, float, i64, i64, i32, ptr, ptr, i32, ptr, ptr, [349 x [5 x i8]], [256 x i16], [349 x i16], double, double, ptr, [2 x i32], i64, i64, i64, i64, i64, i64, i64, i64, i64, i64, i64, i64, i64, i64, i64, i64, i64, i64, i64, i64, i64, i64, i64, i64, i64, i64, i64, i64, i64, i64, i64, i64, i64, i64, i64, i64, i64, i64, i64, i64, i64, i64, i64, i64, i64, i64, i64, i64, i64, i64, %struct.anon.26, %struct.anon.27, %struct.anon.28, %struct.anon.29, %struct.anon.30, %struct.anon.31, %struct.anon.32, %struct.anon.33, %struct.anon.34, %struct.anon.35, %struct.anon.36, %struct.anon.37, %struct.anon.38 }
%struct.anon.26 = type { ptr, i32, ptr, ptr, ptr, ptr, ptr, ptr, ptr, ptr, ptr, ptr, ptr, ptr, ptr, ptr, ptr, ptr, ptr, ptr, ptr, ptr, ptr, ptr, ptr, ptr, ptr, ptr, ptr, ptr, ptr, ptr, ptr, ptr, ptr, ptr, ptr, ptr, ptr, ptr, ptr, ptr, ptr, ptr, ptr, ptr, ptr, ptr, ptr, ptr, ptr, ptr, ptr, ptr, ptr, ptr, ptr, ptr, ptr, ptr, ptr, ptr, ptr, ptr, ptr, ptr, ptr, ptr, ptr, ptr, ptr, ptr, ptr, ptr, ptr, ptr, ptr, ptr, ptr, ptr, ptr, ptr, ptr, ptr, ptr, ptr, ptr, ptr }
%struct.anon.27 = type { ptr, ptr, ptr, ptr }
%struct.anon.28 = type { i32, ptr, i32, i32, i32, i32, i32, i32, ptr, ptr, ptr, ptr, ptr, ptr, ptr, ptr, ptr, ptr, ptr, ptr, ptr, ptr, ptr, ptr, ptr }
%struct.anon.29 = type { i32, i32, i32, i32, i32, i32, i32, i32, ptr, ptr, ptr, ptr, ptr, ptr, ptr, ptr, ptr }
%struct.anon.30 = type { i32, i32, i32, i32, i32 }
%struct.anon.31 = type { i32, i64, i64 }
%struct.anon.32 = type { ptr, ptr, ptr, ptr, ptr, ptr, ptr }
%struct.anon.33 = type { i32, ptr, i32, i32, ptr, ptr, ptr }
%struct.anon.34 = type { ptr, ptr }
%struct.anon.35 = type { i32, ptr, i32, i32, ptr, ptr, ptr, ptr }
%struct.anon.36 = type { i32, ptr, i32, i32, i32, i32, i32, ptr, ptr }
%struct.anon.37 = type { i32, ptr, i32, i32, i32, i32, ptr, ptr, ptr }
%struct.anon.38 = type { i32, ptr, i32, i32, i32, i32, ptr, ptr, ptr, ptr }
%struct._GLFWlibraryNull = type { i32, i32, ptr, ptr, [121 x i16], [349 x i8] }
%struct._GLFWlibraryGLX = type { i32, i32, i32, i32, ptr, ptr, ptr, ptr, ptr, ptr, ptr, ptr, ptr, ptr, ptr, ptr, ptr, ptr, ptr, ptr, ptr, ptr, ptr, ptr, i32, i32, i32, i32, i32, i32, i32, i32, i32, i32, i32, i32 }
%struct._GLFWlibraryLinux = type { i32, i32, %struct.re_pattern_buffer, i32, i32 }
%struct.re_pattern_buffer = type { ptr, i64, i64, i64, ptr, ptr, i64, i8 }
%struct._GLFWwindow = type { ptr, i32, i32, i32, i32, i32, i32, i32, ptr, i32, %struct.GLFWvidmode, ptr, ptr, ptr, i32, i32, i32, i32, i32, i32, i32, i32, i32, i32, [8 x i8], [349 x i8], double, double, i32, %struct._GLFWcontext, %struct.anon.1, %struct._GLFWwindowWayland, %struct._GLFWwindowX11, %struct._GLFWwindowNull }
%struct.GLFWvidmode = type { i32, i32, i32, i32, i32, i32 }
%struct._GLFWcontext = type { i32, i32, i32, i32, i32, i32, i32, i32, i32, i32, i32, ptr, ptr, ptr, ptr, ptr, ptr, ptr, ptr, ptr, %struct.anon, %struct.anon.0, %struct._GLFWcontextGLX }
%struct.anon = type { ptr, ptr, ptr, ptr }
%struct.anon.0 = type { ptr, i32, i32, ptr }
%struct._GLFWcontextGLX = type { ptr, i64 }
%struct.anon.1 = type { ptr, ptr, ptr, ptr, ptr, ptr, ptr, ptr, ptr, ptr, ptr, ptr, ptr, ptr, ptr, ptr, ptr }
%struct._GLFWwindowWayland = type { i32, i32, i32, i32, i32, i32, i32, i32, i32, i32, i32, ptr, ptr, %struct.anon.2, %struct.anon.3, %struct.anon.4, %struct.anon.5, ptr, double, double, ptr, i32, ptr, i64, i64, ptr, i32, ptr, ptr, ptr, ptr, ptr, ptr, %struct.anon.6 }
%struct.anon.2 = type { ptr }
%struct.anon.3 = type { i32, i32, i32, i32, i32, i32 }
%struct.anon.4 = type { ptr, ptr, ptr, i32 }
%struct.anon.5 = type { ptr }
%struct.anon.6 = type { i32, ptr, %struct._GLFWfallbackEdgeWayland, %struct._GLFWfallbackEdgeWayland, %struct._GLFWfallbackEdgeWayland, %struct._GLFWfallbackEdgeWayland, ptr }
%struct._GLFWfallbackEdgeWayland = type { ptr, ptr, ptr }
%struct._GLFWwindowX11 = type { i64, i64, i64, ptr, i32, i32, i32, i32, i32, i32, i32, i32, i32, i32, i32, i32, [256 x i64] }
%struct._GLFWwindowNull = type { i32, i32, i32, i32, i32, i32, i32, i32, i32, i32, i32, float }

@_glfw = external global %struct._GLFWlibrary, align 8
@.str.9 = private unnamed_addr constant [32 x i8] c"Invalid window attribute 0x%08X\00", align 1

; Function Attrs: nounwind uwtable
define i32 @glfwGetWindowAttrib(ptr noundef %0, i32 noundef %1) #0 {
  %3 = alloca i32, align 4
  %4 = alloca ptr, align 8
  %5 = alloca i32, align 4
  %6 = alloca ptr, align 8
  %7 = alloca i32, align 4
  store ptr %0, ptr %4, align 8, !tbaa !145
  store i32 %1, ptr %5, align 4, !tbaa !8
  call void @llvm.lifetime.start.p0(i64 8, ptr %6) #6
  %8 = load ptr, ptr %4, align 8, !tbaa !145
  store ptr %8, ptr %6, align 8, !tbaa !3
  %9 = load i32, ptr @_glfw, align 8, !tbaa !147
  %10 = icmp ne i32 %9, 0
  br i1 %10, label %12, label %11

11:                                               ; preds = %2
  call void (i32, ptr, ...) @_glfwInputError(i32 noundef 65537, ptr noundef null)
  store i32 0, ptr %3, align 4
  store i32 1, ptr %7, align 4
  br label %123

12:                                               ; preds = %2
  %13 = load i32, ptr %5, align 4, !tbaa !8
  switch i32 %13, label %121 [
    i32 131073, label %14
    i32 131074, label %18
    i32 131076, label %22
    i32 131080, label %26
    i32 131083, label %30
    i32 131084, label %34
    i32 131085, label %38
    i32 131082, label %42
    i32 131075, label %46
    i32 131077, label %50
    i32 131079, label %54
    i32 131078, label %58
    i32 135184, label %62
    i32 139265, label %66
    i32 139275, label %71
    i32 139266, label %76
    i32 139267, label %81
    i32 139268, label %86
    i32 139269, label %91
    i32 139270, label %96
    i32 139271, label %101
    i32 139272, label %106
    i32 139273, label %111
    i32 139274, label %116
  ]

14:                                               ; preds = %12
  %15 = load ptr, ptr getelementptr inbounds nuw (%struct._GLFWplatform, ptr getelementptr inbounds nuw (%struct._GLFWlibrary, ptr @_glfw, i32 0, i32 2), i32 0, i32 50), align 8, !tbaa !266
  %16 = load ptr, ptr %6, align 8, !tbaa !3
  %17 = call i32 %15(ptr noundef %16)
  store i32 %17, ptr %3, align 4
  store i32 1, ptr %7, align 4
  br label %123

18:                                               ; preds = %12
  %19 = load ptr, ptr getelementptr inbounds nuw (%struct._GLFWplatform, ptr getelementptr inbounds nuw (%struct._GLFWlibrary, ptr @_glfw, i32 0, i32 2), i32 0, i32 51), align 8, !tbaa !267
  %20 = load ptr, ptr %6, align 8, !tbaa !3
  %21 = call i32 %19(ptr noundef %20)
  store i32 %21, ptr %3, align 4
  store i32 1, ptr %7, align 4
  br label %123

22:                                               ; preds = %12
  %23 = load ptr, ptr getelementptr inbounds nuw (%struct._GLFWplatform, ptr getelementptr inbounds nuw (%struct._GLFWlibrary, ptr @_glfw, i32 0, i32 2), i32 0, i32 52), align 8, !tbaa !268
  %24 = load ptr, ptr %6, align 8, !tbaa !3
  %25 = call i32 %23(ptr noundef %24)
  store i32 %25, ptr %3, align 4
  store i32 1, ptr %7, align 4
  br label %123

26:                                               ; preds = %12
  %27 = load ptr, ptr getelementptr inbounds nuw (%struct._GLFWplatform, ptr getelementptr inbounds nuw (%struct._GLFWlibrary, ptr @_glfw, i32 0, i32 2), i32 0, i32 53), align 8, !tbaa !269
  %28 = load ptr, ptr %6, align 8, !tbaa !3
  %29 = call i32 %27(ptr noundef %28)
  store i32 %29, ptr %3, align 4
  store i32 1, ptr %7, align 4
  br label %123

30:                                               ; preds = %12
  %31 = load ptr, ptr getelementptr inbounds nuw (%struct._GLFWplatform, ptr getelementptr inbounds nuw (%struct._GLFWlibrary, ptr @_glfw, i32 0, i32 2), i32 0, i32 54), align 8, !tbaa !270
  %32 = load ptr, ptr %6, align 8, !tbaa !3
  %33 = call i32 %31(ptr noundef %32)
  store i32 %33, ptr %3, align 4
  store i32 1, ptr %7, align 4
  br label %123

34:                                               ; preds = %12
  %35 = load ptr, ptr %6, align 8, !tbaa !3
  %36 = getelementptr inbounds nuw %struct._GLFWwindow, ptr %35, i32 0, i32 5
  %37 = load i32, ptr %36, align 8, !tbaa !177
  store i32 %37, ptr %3, align 4
  store i32 1, ptr %7, align 4
  br label %123

38:                                               ; preds = %12
  %39 = load ptr, ptr %6, align 8, !tbaa !3
  %40 = getelementptr inbounds nuw %struct._GLFWwindow, ptr %39, i32 0, i32 6
  %41 = load i32, ptr %40, align 4, !tbaa !179
  store i32 %41, ptr %3, align 4
  store i32 1, ptr %7, align 4
  br label %123

42:                                               ; preds = %12
  %43 = load ptr, ptr getelementptr inbounds nuw (%struct._GLFWplatform, ptr getelementptr inbounds nuw (%struct._GLFWlibrary, ptr @_glfw, i32 0, i32 2), i32 0, i32 55), align 8, !tbaa !271
  %44 = load ptr, ptr %6, align 8, !tbaa !3
  %45 = call i32 %43(ptr noundef %44)
  store i32 %45, ptr %3, align 4
  store i32 1, ptr %7, align 4
  br label %123

46:                                               ; preds = %12
  %47 = load ptr, ptr %6, align 8, !tbaa !3
  %48 = getelementptr inbounds nuw %struct._GLFWwindow, ptr %47, i32 0, i32 1
  %49 = load i32, ptr %48, align 8, !tbaa !169
  store i32 %49, ptr %3, align 4
  store i32 1, ptr %7, align 4
  br label %123

50:                                               ; preds = %12
  %51 = load ptr, ptr %6, align 8, !tbaa !3
  %52 = getelementptr inbounds nuw %struct._GLFWwindow, ptr %51, i32 0, i32 2
  %53 = load i32, ptr %52, align 4, !tbaa !171
  store i32 %53, ptr %3, align 4
  store i32 1, ptr %7, align 4
  br label %123

54:                                               ; preds = %12
  %55 = load ptr, ptr %6, align 8, !tbaa !3
  %56 = getelementptr inbounds nuw %struct._GLFWwindow, ptr %55, i32 0, i32 4
  %57 = load i32, ptr %56, align 4, !tbaa !175
  store i32 %57, ptr %3, align 4
  store i32 1, ptr %7, align 4
  br label %123

58:                                               ; preds = %12
  %59 = load ptr, ptr %6, align 8, !tbaa !3
  %60 = getelementptr inbounds nuw %struct._GLFWwindow, ptr %59, i32 0, i32 3
  %61 = load i32, ptr %60, align 8, !tbaa !173
  store i32 %61, ptr %3, align 4
  store i32 1, ptr %7, align 4
  br label %123

62:                                               ; preds = %12
  %63 = load ptr, ptr %6, align 8, !tbaa !3
  %64 = getelementptr inbounds nuw %struct._GLFWwindow, ptr %63, i32 0, i32 9
  %65 = load i32, ptr %64, align 8, !tbaa !182
  store i32 %65, ptr %3, align 4
  store i32 1, ptr %7, align 4
  br label %123

66:                                               ; preds = %12
  %67 = load ptr, ptr %6, align 8, !tbaa !3
  %68 = getelementptr inbounds nuw %struct._GLFWwindow, ptr %67, i32 0, i32 29
  %69 = getelementptr inbounds nuw %struct._GLFWcontext, ptr %68, i32 0, i32 0
  %70 = load i32, ptr %69, align 8, !tbaa !272
  store i32 %70, ptr %3, align 4
  store i32 1, ptr %7, align 4
  br label %123

71:                                               ; preds = %12
  %72 = load ptr, ptr %6, align 8, !tbaa !3
  %73 = getelementptr inbounds nuw %struct._GLFWwindow, ptr %72, i32 0, i32 29
  %74 = getelementptr inbounds nuw %struct._GLFWcontext, ptr %73, i32 0, i32 1
  %75 = load i32, ptr %74, align 4, !tbaa !273
  store i32 %75, ptr %3, align 4
  store i32 1, ptr %7, align 4
  br label %123

76:                                               ; preds = %12
  %77 = load ptr, ptr %6, align 8, !tbaa !3
  %78 = getelementptr inbounds nuw %struct._GLFWwindow, ptr %77, i32 0, i32 29
  %79 = getelementptr inbounds nuw %struct._GLFWcontext, ptr %78, i32 0, i32 2
  %80 = load i32, ptr %79, align 8, !tbaa !274
  store i32 %80, ptr %3, align 4
  store i32 1, ptr %7, align 4
  br label %123

81:                                               ; preds = %12
  %82 = load ptr, ptr %6, align 8, !tbaa !3
  %83 = getelementptr inbounds nuw %struct._GLFWwindow, ptr %82, i32 0, i32 29
  %84 = getelementptr inbounds nuw %struct._GLFWcontext, ptr %83, i32 0, i32 3
  %85 = load i32, ptr %84, align 4, !tbaa !275
  store i32 %85, ptr %3, align 4
  store i32 1, ptr %7, align 4
  br label %123

86:                                               ; preds = %12
  %87 = load ptr, ptr %6, align 8, !tbaa !3
  %88 = getelementptr inbounds nuw %struct._GLFWwindow, ptr %87, i32 0, i32 29
  %89 = getelementptr inbounds nuw %struct._GLFWcontext, ptr %88, i32 0, i32 4
  %90 = load i32, ptr %89, align 8, !tbaa !276
  store i32 %90, ptr %3, align 4
  store i32 1, ptr %7, align 4
  br label %123

91:                                               ; preds = %12
  %92 = load ptr, ptr %6, align 8, !tbaa !3
  %93 = getelementptr inbounds nuw %struct._GLFWwindow, ptr %92, i32 0, i32 29
  %94 = getelementptr inbounds nuw %struct._GLFWcontext, ptr %93, i32 0, i32 9
  %95 = load i32, ptr %94, align 4, !tbaa !277
  store i32 %95, ptr %3, align 4
  store i32 1, ptr %7, align 4
  br label %123

96:                                               ; preds = %12
  %97 = load ptr, ptr %6, align 8, !tbaa !3
  %98 = getelementptr inbounds nuw %struct._GLFWwindow, ptr %97, i32 0, i32 29
  %99 = getelementptr inbounds nuw %struct._GLFWcontext, ptr %98, i32 0, i32 5
  %100 = load i32, ptr %99, align 4, !tbaa !278
  store i32 %100, ptr %3, align 4
  store i32 1, ptr %7, align 4
  br label %123

101:                                              ; preds = %12
  %102 = load ptr, ptr %6, align 8, !tbaa !3
  %103 = getelementptr inbounds nuw %struct._GLFWwindow, ptr %102, i32 0, i32 29
  %104 = getelementptr inbounds nuw %struct._GLFWcontext, ptr %103, i32 0, i32 6
  %105 = load i32, ptr %104, align 8, !tbaa !279
  store i32 %105, ptr %3, align 4
  store i32 1, ptr %7, align 4
  br label %123

106:                                              ; preds = %12
  %107 = load ptr, ptr %6, align 8, !tbaa !3
  %108 = getelementptr inbounds nuw %struct._GLFWwindow, ptr %107, i32 0, i32 29
  %109 = getelementptr inbounds nuw %struct._GLFWcontext, ptr %108, i32 0, i32 8
  %110 = load i32, ptr %109, align 8, !tbaa !280
  store i32 %110, ptr %3, align 4
  store i32 1, ptr %7, align 4
  br label %123

111:                                              ; preds = %12
  %112 = load ptr, ptr %6, align 8, !tbaa !3
  %113 = getelementptr inbounds nuw %struct._GLFWwindow, ptr %112, i32 0, i32 29
  %114 = getelementptr inbounds nuw %struct._GLFWcontext, ptr %113, i32 0, i32 10
  %115 = load i32, ptr %114, align 8, !tbaa !281
  store i32 %115, ptr %3, align 4
  store i32 1, ptr %7, align 4
  br label %123

116:                                              ; preds = %12
  %117 = load ptr, ptr %6, align 8, !tbaa !3
  %118 = getelementptr inbounds nuw %struct._GLFWwindow, ptr %117, i32 0, i32 29
  %119 = getelementptr inbounds nuw %struct._GLFWcontext, ptr %118, i32 0, i32 7
  %120 = load i32, ptr %119, align 4, !tbaa !282
  store i32 %120, ptr %3, align 4
  store i32 1, ptr %7, align 4
  br label %123

121:                                              ; preds = %12
  %122 = load i32, ptr %5, align 4, !tbaa !8
  call void (i32, ptr, ...) @_glfwInputError(i32 noundef 65539, ptr noundef @.str.9, i32 noundef %122)
  store i32 0, ptr %3, align 4
  store i32 1, ptr %7, align 4
  br label %123

123:                                              ; preds = %121, %116, %111, %106, %101, %96, %91, %86, %81, %76, %71, %66, %62, %58, %54, %50, %46, %42, %38, %34, %30, %26, %22, %18, %14, %11
  call void @llvm.lifetime.end.p0(i64 8, ptr %6) #6
  %124 = load i32, ptr %3, align 4
  ret i32 %124
}