; Function Attrs: nounwind uwtable
define i32 @glfwGetWindowAttrib(ptr noundef %0, i32 noundef %1) local_unnamed_addr #0 {
  %3 = load i32, ptr @_glfw, align 8, !tbaa !138
  %.not = icmp eq i32 %3, 0
  br i1 %.not, label %4, label %5

4:                                                ; preds = %2
  tail call void (i32, ptr, ...) @_glfwInputError(i32 noundef 65537, ptr noundef null) #7
  br label %79

5:                                                ; preds = %2
  switch i32 %1, label %78 [
    i32 131073, label %6
    i32 131074, label %9
    i32 131076, label %12
    i32 131080, label %15
    i32 131083, label %18
    i32 131084, label %21
    i32 131085, label %24
    i32 131082, label %27
    i32 131075, label %30
    i32 131077, label %33
    i32 131079, label %36
    i32 131078, label %39
    i32 135184, label %42
    i32 139265, label %45
    i32 139275, label %48
    i32 139266, label %51
    i32 139267, label %54
    i32 139268, label %57
    i32 139269, label %60
    i32 139270, label %63
    i32 139271, label %66
    i32 139272, label %69
    i32 139273, label %72
    i32 139274, label %75
  ]

6:                                                ; preds = %5
  %7 = load ptr, ptr getelementptr inbounds nuw (i8, ptr @_glfw, i64 440), align 8, !tbaa !253
  %8 = tail call i32 %7(ptr noundef %0) #7
  br label %79

9:                                                ; preds = %5
  %10 = load ptr, ptr getelementptr inbounds nuw (i8, ptr @_glfw, i64 448), align 8, !tbaa !254
  %11 = tail call i32 %10(ptr noundef %0) #7
  br label %79

12:                                               ; preds = %5
  %13 = load ptr, ptr getelementptr inbounds nuw (i8, ptr @_glfw, i64 456), align 8, !tbaa !255
  %14 = tail call i32 %13(ptr noundef %0) #7
  br label %79

15:                                               ; preds = %5
  %16 = load ptr, ptr getelementptr inbounds nuw (i8, ptr @_glfw, i64 464), align 8, !tbaa !256
  %17 = tail call i32 %16(ptr noundef %0) #7
  br label %79

18:                                               ; preds = %5
  %19 = load ptr, ptr getelementptr inbounds nuw (i8, ptr @_glfw, i64 472), align 8, !tbaa !257
  %20 = tail call i32 %19(ptr noundef %0) #7
  br label %79

21:                                               ; preds = %5
  %22 = getelementptr inbounds nuw i8, ptr %0, i64 24
  %23 = load i32, ptr %22, align 8, !tbaa !171
  br label %79

24:                                               ; preds = %5
  %25 = getelementptr inbounds nuw i8, ptr %0, i64 28
  %26 = load i32, ptr %25, align 4, !tbaa !173
  br label %79

27:                                               ; preds = %5
  %28 = load ptr, ptr getelementptr inbounds nuw (i8, ptr @_glfw, i64 480), align 8, !tbaa !258
  %29 = tail call i32 %28(ptr noundef %0) #7
  br label %79

30:                                               ; preds = %5
  %31 = getelementptr inbounds nuw i8, ptr %0, i64 8
  %32 = load i32, ptr %31, align 8, !tbaa !163
  br label %79

33:                                               ; preds = %5
  %34 = getelementptr inbounds nuw i8, ptr %0, i64 12
  %35 = load i32, ptr %34, align 4, !tbaa !165
  br label %79

36:                                               ; preds = %5
  %37 = getelementptr inbounds nuw i8, ptr %0, i64 20
  %38 = load i32, ptr %37, align 4, !tbaa !169
  br label %79

39:                                               ; preds = %5
  %40 = getelementptr inbounds nuw i8, ptr %0, i64 16
  %41 = load i32, ptr %40, align 8, !tbaa !167
  br label %79

42:                                               ; preds = %5
  %43 = getelementptr inbounds nuw i8, ptr %0, i64 48
  %44 = load i32, ptr %43, align 8, !tbaa !176
  br label %79

45:                                               ; preds = %5
  %46 = getelementptr inbounds nuw i8, ptr %0, i64 528
  %47 = load i32, ptr %46, align 8, !tbaa !259
  br label %79

48:                                               ; preds = %5
  %49 = getelementptr inbounds nuw i8, ptr %0, i64 532
  %50 = load i32, ptr %49, align 4, !tbaa !260
  br label %79

51:                                               ; preds = %5
  %52 = getelementptr inbounds nuw i8, ptr %0, i64 536
  %53 = load i32, ptr %52, align 8, !tbaa !261
  br label %79

54:                                               ; preds = %5
  %55 = getelementptr inbounds nuw i8, ptr %0, i64 540
  %56 = load i32, ptr %55, align 4, !tbaa !262
  br label %79

57:                                               ; preds = %5
  %58 = getelementptr inbounds nuw i8, ptr %0, i64 544
  %59 = load i32, ptr %58, align 8, !tbaa !263
  br label %79

60:                                               ; preds = %5
  %61 = getelementptr inbounds nuw i8, ptr %0, i64 564
  %62 = load i32, ptr %61, align 4, !tbaa !264
  br label %79

63:                                               ; preds = %5
  %64 = getelementptr inbounds nuw i8, ptr %0, i64 548
  %65 = load i32, ptr %64, align 4, !tbaa !265
  br label %79

66:                                               ; preds = %5
  %67 = getelementptr inbounds nuw i8, ptr %0, i64 552
  %68 = load i32, ptr %67, align 8, !tbaa !266
  br label %79

69:                                               ; preds = %5
  %70 = getelementptr inbounds nuw i8, ptr %0, i64 560
  %71 = load i32, ptr %70, align 8, !tbaa !267
  br label %79

72:                                               ; preds = %5
  %73 = getelementptr inbounds nuw i8, ptr %0, i64 568
  %74 = load i32, ptr %73, align 8, !tbaa !268
  br label %79

75:                                               ; preds = %5
  %76 = getelementptr inbounds nuw i8, ptr %0, i64 556
  %77 = load i32, ptr %76, align 4, !tbaa !269
  br label %79

78:                                               ; preds = %5
  tail call void (i32, ptr, ...) @_glfwInputError(i32 noundef 65539, ptr noundef nonnull @.str.9, i32 noundef %1) #7
  br label %79

79:                                               ; preds = %78, %75, %72, %69, %66, %63, %60, %57, %54, %51, %48, %45, %42, %39, %36, %33, %30, %27, %24, %21, %18, %15, %12, %9, %6, %4
  %.0 = phi i32 [ 0, %78 ], [ %77, %75 ], [ %74, %72 ], [ %71, %69 ], [ %68, %66 ], [ %65, %63 ], [ %62, %60 ], [ %59, %57 ], [ %56, %54 ], [ %53, %51 ], [ %50, %48 ], [ %47, %45 ], [ %44, %42 ], [ %41, %39 ], [ %38, %36 ], [ %35, %33 ], [ %32, %30 ], [ %29, %27 ], [ %26, %24 ], [ %23, %21 ], [ %20, %18 ], [ %17, %15 ], [ %14, %12 ], [ %11, %9 ], [ %8, %6 ], [ 0, %4 ]
  ret i32 %.0
}